; Function Attrs: mustprogress nofree norecurse nounwind memory(readwrite, argmem: none, inaccessiblemem: none) uwtable
define void @_ZN9grpc_core15ExperimentFlags13TestOnlyClearEv() local_unnamed_addr #1 align 2 {
  br label %2

1:                                                ; preds = %2
  ret void

2:                                                ; preds = %0, %2
  %.03 = phi i64 [ 0, %0 ], [ %4, %2 ]
  %3 = getelementptr inbounds nuw [8 x %"struct.std::atomic"], ptr @_ZN9grpc_core15ExperimentFlags17experiment_flags_E, i64 0, i64 %.03
  store atomic i64 0, ptr %3 monotonic, align 8
  %4 = add nuw nsw i64 %.03, 1
  %exitcond.not = icmp eq i64 %4, 8
  br i1 %exitcond.not, label %1, label %2, !llvm.loop !3
}